; Function Attrs: mustprogress nounwind uwtable
define dso_local void @_ZN4llvm13ScheduleDAGMI11releaseSuccEPNS_5SUnitEPNS_4SDepE(ptr noundef nonnull align 8 dereferenceable(2704) %0, ptr noundef readonly captures(none) %1, ptr noundef readonly captures(none) %2) local_unnamed_addr #0 align 2 {
  %.0.copyload.i.i.i.i = load i64, ptr %2, align 8
  %4 = and i64 %.0.copyload.i.i.i.i, -8
  %5 = inttoptr i64 %4 to ptr
  %6 = and i64 %.0.copyload.i.i.i.i, 6
  %7 = icmp eq i64 %6, 6
  %8 = getelementptr inbounds nuw i8, ptr %2, i64 8
  %9 = load i32, ptr %8, align 8
  %10 = icmp ugt i32 %9, 3
  %11 = select i1 %7, i1 %10, i1 false
  br i1 %11, label %12, label %23

12:                                               ; preds = %3
  %13 = getelementptr inbounds nuw i8, ptr %5, i64 224
  %14 = load i32, ptr %13, align 8
  %15 = add i32 %14, -1
  store i32 %15, ptr %13, align 8
  %.0.copyload.i.i.i.i.i18 = load i64, ptr %2, align 8
  %16 = and i64 %.0.copyload.i.i.i.i.i18, 6
  %17 = icmp eq i64 %16, 6
  %18 = load i32, ptr %8, align 8
  %19 = icmp eq i32 %18, 5
  %20 = select i1 %17, i1 %19, i1 false
  br i1 %20, label %21, label %46

21:                                               ; preds = %12
  %22 = getelementptr inbounds nuw i8, ptr %0, i64 2696
  store ptr %5, ptr %22, align 8
  br label %46

23:                                               ; preds = %3
  %24 = getelementptr inbounds nuw i8, ptr %5, i64 232
  %25 = load i32, ptr %24, align 8
  %26 = getelementptr inbounds nuw i8, ptr %1, i64 232
  %27 = load i32, ptr %26, align 8
  %28 = getelementptr inbounds nuw i8, ptr %2, i64 12
  %29 = load i32, ptr %28, align 4
  %30 = add i32 %29, %27
  %31 = icmp ult i32 %25, %30
  br i1 %31, label %32, label %33

32:                                               ; preds = %23
  store i32 %30, ptr %24, align 8
  br label %33

33:                                               ; preds = %32, %23
  %34 = getelementptr inbounds nuw i8, ptr %5, i64 216
  %35 = load i32, ptr %34, align 8
  %36 = add i32 %35, -1
  store i32 %36, ptr %34, align 8
  %37 = icmp eq i32 %36, 0
  %38 = getelementptr inbounds nuw i8, ptr %0, i64 328
  %39 = icmp ne ptr %38, %5
  %or.cond = select i1 %37, i1 %39, i1 false
  br i1 %or.cond, label %40, label %46

40:                                               ; preds = %33
  %41 = getelementptr inbounds nuw i8, ptr %0, i64 2640
  %42 = load ptr, ptr %41, align 8
  %43 = load ptr, ptr %42, align 8
  %44 = getelementptr inbounds nuw i8, ptr %43, i64 120
  %45 = load ptr, ptr %44, align 8
  tail call void %45(ptr noundef nonnull align 8 dereferenceable(8) %42, ptr noundef nonnull %5) #28
  br label %46

46:                                               ; preds = %12, %21, %40, %33
  ret void
}